c__builtin__
set
p0
((lp1
ccopy_reg
_reconstructor
p2
(clan_sync_controller.pysyncit.persistence
FileData
p3
c__builtin__
object
p4
Ntp5
Rp6
(dp7
S'timestamp'
p8
S'1498067378.67'
p9
sS'name'
p10
S'/home/daidv/xyz/.abc.swpx'
p11
sS'serverip'
p12
S'created'
p13
sS'event_type'
p14
S'192.168.122.59'
p15
sbag2
(g3
g4
Ntp16
Rp17
(dp18
g8
S'1498067378.7'
p19
sg10
S'/home/daidv/xyz/.abc.swp'
p20
sg12
S'created'
p21
sg14
S'192.168.122.59'
p22
sbag2
(g3
g4
Ntp23
Rp24
(dp25
g8
S'1498063672.16'
p26
sg10
S'/home/daidv/xyz/abc'
p27
sg12
S'modified'
p28
sg14
S'192.168.122.59'
p29
sbag2
(g3
g4
Ntp30
Rp31
(dp32
g8
F1497772581.5860453
sg10
S'/home/daidv/xyz/dangvandai'
p33
sg12
Nsg14
S'localhost'
p34
sbag2
(g3
g4
Ntp35
Rp36
(dp37
g8
F1498064070.6068482
sg10
S'/home/daidv/xyz/abcjskdj'
p38
sg12
Nsg14
S'localhost'
p39
sbag2
(g3
g4
Ntp40
Rp41
(dp42
g8
F1498064048.810496
sg10
S'/home/daidv/xyz/abcjskd'
p43
sg12
Nsg14
g39
sbag2
(g3
g4
Ntp44
Rp45
(dp46
g8
S'1498067378.66'
p47
sg10
S'/home/daidv/xyz/.abc.swp'
p48
sg12
S'created'
p49
sg14
S'192.168.122.59'
p50
sbag2
(g3
g4
Ntp51
Rp52
(dp53
g8
S'1498067378.87'
p54
sg10
S'/home/daidv/xyz/.abc.swp'
p55
sg12
S'modified'
p56
sg14
S'192.168.122.59'
p57
sbag2
(g3
g4
Ntp58
Rp59
(dp60
g8
S'1498067380.09'
p61
sg10
S'/home/daidv/xyz/.abc.swp'
p62
sg12
S'modified'
p63
sg14
S'192.168.122.59'
p64
sbag2
(g3
g4
Ntp65
Rp66
(dp67
g8
S'1498064282.02'
p68
sg10
S'/home/daidv/xyz/abc'
p69
sg12
S'modified'
p70
sg14
S'192.168.122.59'
p71
sbag2
(g3
g4
Ntp72
Rp73
(dp74
g8
S'timestamp'
p75
sg10
S'filename'
p76
sg12
S'name'
p77
sg14
S'serverip'
p78
sbag2
(g3
g4
Ntp79
Rp80
(dp81
g8
F1498064049.324781
sg10
S'/home/daidv/xyz/abcjskd'
p82
sg12
S'created'
p83
sg14
g34
sbag2
(g3
g4
Ntp84
Rp85
(dp86
g8
S'1498067380.05'
p87
sg10
S'/home/daidv/xyz/4913'
p88
sg12
S'deleted'
p89
sg14
S'192.168.122.59'
p90
sbag2
(g3
g4
Ntp91
Rp92
(dp93
g8
F1498064282.018886
sg10
S'/home/daidv/xyz/abc'
p94
sg12
S'modified'
p95
sg14
g34
sbag2
(g3
g4
Ntp96
Rp97
(dp98
g8
S'1498064049.33'
p99
sg10
S'/home/daidv/xyz/abcjskd'
p100
sg12
S'modified'
p101
sg14
S'192.168.122.59'
p102
sbag2
(g3
g4
Ntp103
Rp104
(dp105
g8
F1498064282.012975
sg10
S'/home/daidv/xyz/abc'
p106
sg12
g83
sg14
g34
sbag2
(g3
g4
Ntp107
Rp108
(dp109
g8
S'1498067380.06'
p110
sg10
S'/home/daidv/xyz/abc'
p111
sg12
S'created'
p112
sg14
S'192.168.122.59'
p113
sbag2
(g3
g4
Ntp114
Rp115
(dp116
g8
F1497777798.0
sg10
S'/home/daidv/xyz/daikk'
p117
sg12
Nsg14
g39
sbag2
(g3
g4
Ntp118
Rp119
(dp120
g8
F1498064071.127863
sg10
S'/home/daidv/xyz/abcjskdj'
p121
sg12
g95
sg14
g34
sbag2
(g3
g4
Ntp122
Rp123
(dp124
g8
S'1498067380.01'
p125
sg10
S'/home/daidv/xyz/4913'
p126
sg12
S'created'
p127
sg14
S'192.168.122.59'
p128
sbag2
(g3
g4
Ntp129
Rp130
(dp131
g8
S'1498067380.02'
p132
sg10
S'/home/daidv/xyz/4913'
p133
sg12
S'modified'
p134
sg14
S'192.168.122.59'
p135
sbag2
(g3
g4
Ntp136
Rp137
(dp138
g8
F1497777798.0
sg10
S'/home/daidv/xyz/daikk'
p139
sg12
Nsg14
S'localhost'
p140
sbag2
(g3
g4
Ntp141
Rp142
(dp143
g8
F1498067380.074808
sg10
S'/home/daidv/xyz/abc'
p144
sg12
S'modified'
p145
sg14
g39
sbag2
(g3
g4
Ntp146
Rp147
(dp148
g8
F1498064049.332365
sg10
S'/home/daidv/xyz/abcjskd'
p149
sg12
g95
sg14
g34
sbag2
(g3
g4
Ntp150
Rp151
(dp152
g8
S'1498064071.13'
p153
sg10
S'/home/daidv/xyz/abcjskdj'
p154
sg12
S'modified'
p155
sg14
S'192.168.122.59'
p156
sbag2
(g3
g4
Ntp157
Rp158
(dp159
g8
F1498064047.850288
sg10
S'/home/daidv/xyz/abc'
p160
sg12
g95
sg14
g34
sbag2
(g3
g4
Ntp161
Rp162
(dp163
g8
F1498063672.158807
sg10
S'/home/daidv/xyz/abc'
p164
sg12
S'modified'
p165
sg14
g140
sbag2
(g3
g4
Ntp166
Rp167
(dp168
g8
S'1498067380.09'
p169
sg10
S'/home/daidv/xyz/abc~'
p170
sg12
S'deleted'
p171
sg14
S'192.168.122.59'
p172
sbag2
(g3
g4
Ntp173
Rp174
(dp175
g8
S'1498067380.1'
p176
sg10
S'/home/daidv/xyz/.abc.swp'
p177
sg12
S'deleted'
p178
sg14
S'192.168.122.59'
p179
sbag2
(g3
g4
Ntp180
Rp181
(dp182
g8
S'1498067378.69'
p183
sg10
S'/home/daidv/xyz/.abc.swp'
p184
sg12
S'deleted'
p185
sg14
S'192.168.122.59'
p186
sbag2
(g3
g4
Ntp187
Rp188
(dp189
g8
F1498063671.6005163
sg10
S'/home/daidv/xyz/abc'
p190
sg12
Nsg14
g34
sbag2
(g3
g4
Ntp191
Rp192
(dp193
g8
S'1498063672.15'
p194
sg10
S'/home/daidv/xyz/abc'
p195
sg12
S'created'
p196
sg14
S'192.168.122.59'
p197
sbag2
(g3
g4
Ntp198
Rp199
(dp200
g8
S'1498067378.7'
p201
sg10
S'/home/daidv/xyz/.abc.swp'
p202
sg12
S'modified'
p203
sg14
S'192.168.122.59'
p204
sbag2
(g3
g4
Ntp205
Rp206
(dp207
g8
S'1498064282.01'
p208
sg10
S'/home/daidv/xyz/abc'
p209
sg12
S'created'
p210
sg14
S'192.168.122.59'
p211
sbag2
(g3
g4
Ntp212
Rp213
(dp214
g8
F1497772581.5860453
sg10
S'/home/daidv/xyz/dangvandai'
p215
sg12
Nsg14
g39
sbag2
(g3
g4
Ntp216
Rp217
(dp218
g8
F1497772581.5860453
sg10
S'/home/daidv/xyz/dangvandai'
p219
sg12
Nsg14
g140
sbag2
(g3
g4
Ntp220
Rp221
(dp222
g8
S'1498064049.32'
p223
sg10
S'/home/daidv/xyz/abcjskd'
p224
sg12
S'created'
p225
sg14
S'192.168.122.59'
p226
sbag2
(g3
g4
Ntp227
Rp228
(dp229
g8
S'1498067380.07'
p230
sg10
S'/home/daidv/xyz/abc'
p231
sg12
S'modified'
p232
sg14
S'192.168.122.59'
p233
sbag2
(g3
g4
Ntp234
Rp235
(dp236
g8
F1498063672.152947
sg10
S'/home/daidv/xyz/abc'
p237
sg12
S'created'
p238
sg14
g140
sbag2
(g3
g4
Ntp239
Rp240
(dp241
g8
S'1498064071.12'
p242
sg10
S'/home/daidv/xyz/abcjskdj'
p243
sg12
S'created'
p244
sg14
S'192.168.122.59'
p245
sbag2
(g3
g4
Ntp246
Rp247
(dp248
g8
F1498067380.060457
sg10
S'/home/daidv/xyz/abc'
p249
sg12
S'created'
p250
sg14
g39
sbag2
(g3
g4
Ntp251
Rp252
(dp253
g8
F1498064281.4594219
sg10
S'/home/daidv/xyz/abc'
p254
sg12
Nsg14
g39
sbag2
(g3
g4
Ntp255
Rp256
(dp257
g8
F1498064071.121437
sg10
S'/home/daidv/xyz/abcjskdj'
p258
sg12
g83
sg14
g34
sbag2
(g3
g4
Ntp259
Rp260
(dp261
g8
F1497777798.0
sg10
S'/home/daidv/xyz/daikk'
p262
sg12
Nsg14
g34
sbag2
(g3
g4
Ntp263
Rp264
(dp265
g8
S'1498064047.85'
p266
sg10
S'/home/daidv/xyz/abc'
p267
sg12
S'modified'
p268
sg14
S'192.168.122.59'
p269
sbag2
(g3
g4
Ntp270
Rp271
(dp272
g8
S'1498067378.68'
p273
sg10
S'/home/daidv/xyz/.abc.swpx'
p274
sg12
S'deleted'
p275
sg14
S'192.168.122.59'
p276
sbatp277
Rp278
.