c__builtin__
set
p0
((lp1
ccopy_reg
_reconstructor
p2
(clan_sync_controller.pysyncit.persistence
FileData
p3
c__builtin__
object
p4
Ntp5
Rp6
(dp7
S'timestamp'
p8
S'timestamp'
p9
sS'name'
p10
S'filename'
p11
sS'serverip'
p12
S'name'
p13
sS'event_type'
p14
S'serverip'
p15
sbatp16
Rp17
.